target datalayout = "e-m:e-p270:32:32-p271:32:32-p272:64:64-i64:64-i128:128-f80:128-n8:16:32:64-S128"
target triple = "x86_64-pc-linux-gnu"

%struct.text = type { ptr, ptr }
%struct.fileblob = type { ptr, i32, %struct.blob, ptr, ptr, i64, i8 }
%struct.blob = type { ptr, ptr, i64, i64, i32 }

@.str.1 = private unnamed_addr constant [108 x i8] c"generated/home/dtcxzyw/WorkSpace/Projects/compilers/llvm-opt-benchmark/bench/clamav/clamav/libclamav/text.c\00", align 1
@.str.7 = private unnamed_addr constant [11 x i8] c"fb != NULL\00", align 1
@__PRETTY_FUNCTION__.textToFileblob = private unnamed_addr constant [50 x i8] c"fileblob *textToFileblob(text *, fileblob *, int)\00", align 1
@.str.8 = private unnamed_addr constant [10 x i8] c"t != NULL\00", align 1
@.str.9 = private unnamed_addr constant [30 x i8] c"textToFileBlob, destroy = %d\0A\00", align 1
@.str.10 = private unnamed_addr constant [36 x i8] c"textToFileBlob to %s, destroy = %d\0A\00", align 1

; Function Attrs: nounwind uwtable
define void @textDestroy(ptr noundef %0) #0 {
  %2 = alloca ptr, align 8
  %3 = alloca ptr, align 8
  store ptr %0, ptr %2, align 8, !tbaa !3
  br label %4

4:                                                ; preds = %22, %1
  %5 = load ptr, ptr %2, align 8, !tbaa !3
  %6 = icmp ne ptr %5, null
  br i1 %6, label %7, label %25

7:                                                ; preds = %4
  call void @llvm.lifetime.start.p0(i64 8, ptr %3) #7
  %8 = load ptr, ptr %2, align 8, !tbaa !3
  %9 = getelementptr inbounds nuw %struct.text, ptr %8, i32 0, i32 1
  %10 = load ptr, ptr %9, align 8, !tbaa !8
  store ptr %10, ptr %3, align 8, !tbaa !3
  %11 = load ptr, ptr %2, align 8, !tbaa !3
  %12 = getelementptr inbounds nuw %struct.text, ptr %11, i32 0, i32 0
  %13 = load ptr, ptr %12, align 8, !tbaa !11
  %14 = icmp ne ptr %13, null
  br i1 %14, label %15, label %22

15:                                               ; preds = %7
  %16 = load ptr, ptr %2, align 8, !tbaa !3
  %17 = getelementptr inbounds nuw %struct.text, ptr %16, i32 0, i32 0
  %18 = load ptr, ptr %17, align 8, !tbaa !11
  %19 = call ptr @lineUnlink(ptr noundef %18)
  %20 = load ptr, ptr %2, align 8, !tbaa !3
  %21 = getelementptr inbounds nuw %struct.text, ptr %20, i32 0, i32 0
  store ptr null, ptr %21, align 8, !tbaa !11
  br label %22

22:                                               ; preds = %15, %7
  %23 = load ptr, ptr %2, align 8, !tbaa !3
  call void @free(ptr noundef %23) #7
  %24 = load ptr, ptr %3, align 8, !tbaa !3
  store ptr %24, ptr %2, align 8, !tbaa !3
  call void @llvm.lifetime.end.p0(i64 8, ptr %3) #7
  br label %4

25:                                               ; preds = %4
  ret void
}

; Function Attrs: nounwind uwtable
define internal ptr @textIterate(ptr noundef %0, ptr noundef %1, ptr noundef %2, i32 noundef %3) #0 {
  %5 = alloca ptr, align 8
  %6 = alloca ptr, align 8
  %7 = alloca ptr, align 8
  %8 = alloca i32, align 4
  store ptr %0, ptr %5, align 8, !tbaa !3
  store ptr %1, ptr %6, align 8, !tbaa !20
  store ptr %2, ptr %7, align 8, !tbaa !20
  store i32 %3, ptr %8, align 4, !tbaa !14
  %9 = load i32, ptr %8, align 4, !tbaa !14
  %10 = icmp ne i32 %9, 0
  br i1 %10, label %11, label %37

11:                                               ; preds = %4
  br label %12

12:                                               ; preds = %32, %11
  %13 = load ptr, ptr %5, align 8, !tbaa !3
  %14 = icmp ne ptr %13, null
  br i1 %14, label %15, label %36

15:                                               ; preds = %12
  %16 = load ptr, ptr %6, align 8, !tbaa !20
  %17 = load ptr, ptr %5, align 8, !tbaa !3
  %18 = getelementptr inbounds nuw %struct.text, ptr %17, i32 0, i32 0
  %19 = load ptr, ptr %18, align 8, !tbaa !11
  %20 = load ptr, ptr %7, align 8, !tbaa !20
  call void %16(ptr noundef %19, ptr noundef %20)
  %21 = load ptr, ptr %5, align 8, !tbaa !3
  %22 = getelementptr inbounds nuw %struct.text, ptr %21, i32 0, i32 0
  %23 = load ptr, ptr %22, align 8, !tbaa !11
  %24 = icmp ne ptr %23, null
  br i1 %24, label %25, label %32

25:                                               ; preds = %15
  %26 = load ptr, ptr %5, align 8, !tbaa !3
  %27 = getelementptr inbounds nuw %struct.text, ptr %26, i32 0, i32 0
  %28 = load ptr, ptr %27, align 8, !tbaa !11
  %29 = call ptr @lineUnlink(ptr noundef %28)
  %30 = load ptr, ptr %5, align 8, !tbaa !3
  %31 = getelementptr inbounds nuw %struct.text, ptr %30, i32 0, i32 0
  store ptr null, ptr %31, align 8, !tbaa !11
  br label %32

32:                                               ; preds = %25, %15
  %33 = load ptr, ptr %5, align 8, !tbaa !3
  %34 = getelementptr inbounds nuw %struct.text, ptr %33, i32 0, i32 1
  %35 = load ptr, ptr %34, align 8, !tbaa !8
  store ptr %35, ptr %5, align 8, !tbaa !3
  br label %12

36:                                               ; preds = %12
  br label %51

37:                                               ; preds = %4
  br label %38

38:                                               ; preds = %41, %37
  %39 = load ptr, ptr %5, align 8, !tbaa !3
  %40 = icmp ne ptr %39, null
  br i1 %40, label %41, label %50

41:                                               ; preds = %38
  %42 = load ptr, ptr %6, align 8, !tbaa !20
  %43 = load ptr, ptr %5, align 8, !tbaa !3
  %44 = getelementptr inbounds nuw %struct.text, ptr %43, i32 0, i32 0
  %45 = load ptr, ptr %44, align 8, !tbaa !11
  %46 = load ptr, ptr %7, align 8, !tbaa !20
  call void %42(ptr noundef %45, ptr noundef %46)
  %47 = load ptr, ptr %5, align 8, !tbaa !3
  %48 = getelementptr inbounds nuw %struct.text, ptr %47, i32 0, i32 1
  %49 = load ptr, ptr %48, align 8, !tbaa !8
  store ptr %49, ptr %5, align 8, !tbaa !3
  br label %38

50:                                               ; preds = %38
  br label %51

51:                                               ; preds = %50, %36
  %52 = load ptr, ptr %7, align 8, !tbaa !20
  ret ptr %52
}

; Function Attrs: nounwind uwtable
define ptr @textToFileblob(ptr noundef %0, ptr noundef %1, i32 noundef %2) #0 {
  %4 = alloca ptr, align 8
  %5 = alloca ptr, align 8
  %6 = alloca ptr, align 8
  %7 = alloca i32, align 4
  store ptr %0, ptr %5, align 8, !tbaa !3
  store ptr %1, ptr %6, align 8, !tbaa !24
  store i32 %2, ptr %7, align 4, !tbaa !14
  %8 = load ptr, ptr %6, align 8, !tbaa !24
  %9 = icmp ne ptr %8, null
  br i1 %9, label %10, label %11

10:                                               ; preds = %3
  br label %12

11:                                               ; preds = %3
  call void @__assert_fail(ptr noundef @.str.7, ptr noundef @.str.1, i32 noundef 367, ptr noundef @__PRETTY_FUNCTION__.textToFileblob) #8
  unreachable

12:                                               ; preds = %10
  %13 = load ptr, ptr %5, align 8, !tbaa !3
  %14 = icmp ne ptr %13, null
  br i1 %14, label %15, label %16

15:                                               ; preds = %12
  br label %17

16:                                               ; preds = %12
  call void @__assert_fail(ptr noundef @.str.8, ptr noundef @.str.1, i32 noundef 368, ptr noundef @__PRETTY_FUNCTION__.textToFileblob) #8
  unreachable

17:                                               ; preds = %15
  %18 = load ptr, ptr %6, align 8, !tbaa !24
  %19 = icmp eq ptr %18, null
  br i1 %19, label %20, label %27

20:                                               ; preds = %17
  %21 = load i32, ptr %7, align 4, !tbaa !14
  call void (ptr, ...) @cli_dbgmsg(ptr noundef @.str.9, i32 noundef %21)
  %22 = call ptr @fileblobCreate()
  store ptr %22, ptr %6, align 8, !tbaa !24
  %23 = load ptr, ptr %6, align 8, !tbaa !24
  %24 = icmp eq ptr %23, null
  br i1 %24, label %25, label %26

25:                                               ; preds = %20
  store ptr null, ptr %4, align 8
  br label %53

26:                                               ; preds = %20
  br label %33

27:                                               ; preds = %17
  %28 = load ptr, ptr %6, align 8, !tbaa !24
  %29 = call ptr @fileblobGetFilename(ptr noundef %28)
  %30 = load i32, ptr %7, align 4, !tbaa !14
  call void (ptr, ...) @cli_dbgmsg(ptr noundef @.str.10, ptr noundef %29, i32 noundef %30)
  %31 = load ptr, ptr %6, align 8, !tbaa !24
  %32 = getelementptr inbounds nuw %struct.fileblob, ptr %31, i32 0, i32 4
  store ptr null, ptr %32, align 8, !tbaa !26
  br label %33

33:                                               ; preds = %27, %26
  %34 = load ptr, ptr %5, align 8, !tbaa !3
  %35 = load ptr, ptr %6, align 8, !tbaa !24
  %36 = load i32, ptr %7, align 4, !tbaa !14
  %37 = call ptr @textIterate(ptr noundef %34, ptr noundef @addToFileblob, ptr noundef %35, i32 noundef %36)
  store ptr %37, ptr %6, align 8, !tbaa !24
  %38 = load i32, ptr %7, align 4, !tbaa !14
  %39 = icmp ne i32 %38, 0
  br i1 %39, label %40, label %51

40:                                               ; preds = %33
  %41 = load ptr, ptr %5, align 8, !tbaa !3
  %42 = getelementptr inbounds nuw %struct.text, ptr %41, i32 0, i32 1
  %43 = load ptr, ptr %42, align 8, !tbaa !8
  %44 = icmp ne ptr %43, null
  br i1 %44, label %45, label %51

45:                                               ; preds = %40
  %46 = load ptr, ptr %5, align 8, !tbaa !3
  %47 = getelementptr inbounds nuw %struct.text, ptr %46, i32 0, i32 1
  %48 = load ptr, ptr %47, align 8, !tbaa !8
  call void @textDestroy(ptr noundef %48)
  %49 = load ptr, ptr %5, align 8, !tbaa !3
  %50 = getelementptr inbounds nuw %struct.text, ptr %49, i32 0, i32 1
  store ptr null, ptr %50, align 8, !tbaa !8
  br label %51

51:                                               ; preds = %45, %40, %33
  %52 = load ptr, ptr %6, align 8, !tbaa !24
  store ptr %52, ptr %4, align 8
  br label %53

53:                                               ; preds = %51, %25
  %54 = load ptr, ptr %4, align 8
  ret ptr %54
}