; Function Attrs: nounwind uwtable
define nonnull ptr @textToFileblob(ptr noundef %0, ptr noundef returned %1, i32 noundef %2) local_unnamed_addr #0 {
  %.not = icmp eq ptr %1, null
  br i1 %.not, label %4, label %5

4:                                                ; preds = %3
  tail call void @__assert_fail(ptr noundef nonnull @.str.7, ptr noundef nonnull @.str.1, i32 noundef 367, ptr noundef nonnull @__PRETTY_FUNCTION__.textToFileblob) #8
  unreachable

5:                                                ; preds = %3
  %.not21 = icmp eq ptr %0, null
  br i1 %.not21, label %6, label %7

6:                                                ; preds = %5
  tail call void @__assert_fail(ptr noundef nonnull @.str.8, ptr noundef nonnull @.str.1, i32 noundef 368, ptr noundef nonnull @__PRETTY_FUNCTION__.textToFileblob) #8
  unreachable

7:                                                ; preds = %5
  %8 = tail call ptr @fileblobGetFilename(ptr noundef nonnull %1) #7
  tail call void (ptr, ...) @cli_dbgmsg(ptr noundef nonnull @.str.10, ptr noundef %8, i32 noundef %2) #7
  %9 = getelementptr inbounds nuw i8, ptr %1, i64 64
  store ptr null, ptr %9, align 8, !tbaa !11
  %.not.i = icmp eq i32 %2, 0
  br i1 %.not.i, label %.preheader.i, label %.preheader18.i

.preheader18.i:                                   ; preds = %7, %19
  %.020.i = phi ptr [ %21, %19 ], [ %0, %7 ]
  %10 = load ptr, ptr %.020.i, align 8, !tbaa !10
  %.not.i26 = icmp eq ptr %10, null
  br i1 %.not.i26, label %addToFileblob.exit27, label %11

11:                                               ; preds = %.preheader18.i
  %12 = tail call ptr @lineGetData(ptr noundef nonnull %10) #7
  %13 = tail call i64 @strlen(ptr noundef nonnull dereferenceable(1) %12) #10
  %14 = tail call i32 @fileblobAddData(ptr noundef nonnull %1, ptr noundef nonnull %12, i64 noundef %13) #7
  br label %addToFileblob.exit27

addToFileblob.exit27:                             ; preds = %.preheader18.i, %11
  %15 = tail call i32 @fileblobAddData(ptr noundef nonnull %1, ptr noundef nonnull @.str.14, i64 noundef 1) #7
  %16 = load ptr, ptr %.020.i, align 8, !tbaa !10
  %.not17.i = icmp eq ptr %16, null
  br i1 %.not17.i, label %19, label %17

17:                                               ; preds = %addToFileblob.exit27
  %18 = tail call ptr @lineUnlink(ptr noundef nonnull %16) #7
  store ptr null, ptr %.020.i, align 8, !tbaa !10
  br label %19

19:                                               ; preds = %17, %addToFileblob.exit27
  %20 = getelementptr inbounds nuw i8, ptr %.020.i, i64 8
  %21 = load ptr, ptr %20, align 8, !tbaa !3
  %.not16.i = icmp eq ptr %21, null
  br i1 %.not16.i, label %textIterate.exit, label %.preheader18.i

.preheader.i:                                     ; preds = %7, %addToFileblob.exit
  %.121.i = phi ptr [ %29, %addToFileblob.exit ], [ %0, %7 ]
  %22 = load ptr, ptr %.121.i, align 8, !tbaa !10
  %.not.i25 = icmp eq ptr %22, null
  br i1 %.not.i25, label %addToFileblob.exit, label %23

23:                                               ; preds = %.preheader.i
  %24 = tail call ptr @lineGetData(ptr noundef nonnull %22) #7
  %25 = tail call i64 @strlen(ptr noundef nonnull dereferenceable(1) %24) #10
  %26 = tail call i32 @fileblobAddData(ptr noundef nonnull %1, ptr noundef nonnull %24, i64 noundef %25) #7
  br label %addToFileblob.exit

addToFileblob.exit:                               ; preds = %.preheader.i, %23
  %27 = tail call i32 @fileblobAddData(ptr noundef nonnull %1, ptr noundef nonnull @.str.14, i64 noundef 1) #7
  %28 = getelementptr inbounds nuw i8, ptr %.121.i, i64 8
  %29 = load ptr, ptr %28, align 8, !tbaa !3
  %.not15.i = icmp eq ptr %29, null
  br i1 %.not15.i, label %textIterate.exit, label %.preheader.i

textIterate.exit:                                 ; preds = %19, %addToFileblob.exit
  br i1 %.not.i, label %39, label %30

30:                                               ; preds = %textIterate.exit
  %31 = getelementptr inbounds nuw i8, ptr %0, i64 8
  %32 = load ptr, ptr %31, align 8, !tbaa !3
  %.not23 = icmp eq ptr %32, null
  br i1 %.not23, label %39, label %.lr.ph.i

.lr.ph.i:                                         ; preds = %30, %38
  %.010.i = phi ptr [ %34, %38 ], [ %32, %30 ]
  %33 = getelementptr inbounds nuw i8, ptr %.010.i, i64 8
  %34 = load ptr, ptr %33, align 8, !tbaa !3
  %35 = load ptr, ptr %.010.i, align 8, !tbaa !10
  %.not8.i = icmp eq ptr %35, null
  br i1 %.not8.i, label %38, label %36

36:                                               ; preds = %.lr.ph.i
  %37 = tail call ptr @lineUnlink(ptr noundef nonnull %35) #7
  br label %38

38:                                               ; preds = %36, %.lr.ph.i
  tail call void @free(ptr noundef nonnull %.010.i) #7
  %.not.i24 = icmp eq ptr %34, null
  br i1 %.not.i24, label %textDestroy.exit, label %.lr.ph.i

textDestroy.exit:                                 ; preds = %38
  store ptr null, ptr %31, align 8, !tbaa !3
  br label %39

39:                                               ; preds = %textIterate.exit, %30, %textDestroy.exit
  ret ptr %1
}